; Function Attrs: mustprogress nounwind memory(inaccessiblemem: write) uwtable
define void @_ZN8facebook5velox6memory15MemoryAllocator14alignmentCheckEmt(i64 noundef %allocateBytes, i16 noundef zeroext %alignmentBytes) local_unnamed_addr #8 align 2 {
entry:
  %cmp.i = icmp eq i16 %alignmentBytes, 16
  br i1 %cmp.i, label %if.end, label %lor.rhs.i

lor.rhs.i:                                        ; preds = %entry
  %0 = add i16 %alignmentBytes, -16
  %or.cond.i = icmp ult i16 %0, 49
  br i1 %or.cond.i, label %land.lhs.true5.i, label %if.then

land.lhs.true5.i:                                 ; preds = %lor.rhs.i
  %conv6.i = zext nneg i16 %alignmentBytes to i64
  %rem.i = urem i64 %allocateBytes, %conv6.i
  %cmp7.i = icmp eq i64 %rem.i, 0
  br i1 %cmp7.i, label %_ZN8facebook5velox6memory15MemoryAllocator16isAlignmentValidEmt.exit, label %if.then

_ZN8facebook5velox6memory15MemoryAllocator16isAlignmentValidEmt.exit: ; preds = %land.lhs.true5.i
  %1 = add nuw nsw i16 %alignmentBytes, 127
  %2 = and i16 %1, %alignmentBytes
  %cmp10.i = icmp eq i16 %2, 0
  br i1 %cmp10.i, label %if.end, label %if.then

if.then:                                          ; preds = %lor.rhs.i, %land.lhs.true5.i, %_ZN8facebook5velox6memory15MemoryAllocator16isAlignmentValidEmt.exit
  tail call void @llvm.trap()
  unreachable

if.end:                                           ; preds = %entry, %_ZN8facebook5velox6memory15MemoryAllocator16isAlignmentValidEmt.exit
  ret void
}